target datalayout = "e-m:e-p270:32:32-p271:32:32-p272:64:64-i64:64-i128:128-f80:128-n8:16:32:64-S128"
target triple = "x86_64-unknown-linux-gnu"

%"class.snappy::Source" = type { ptr }
%struct.iovec = type { ptr, i64 }
%"class.snappy::UncheckedByteArraySink" = type { %"class.snappy::Sink", ptr }
%"class.snappy::Sink" = type { ptr }
%"class.snappy::SnappyIOVecReader" = type { %"class.snappy::Source", ptr, ptr, i64, i64 }

@_ZTVN6snappy6SourceE = external unnamed_addr constant { [7 x ptr] }, align 8
@_ZTVN6snappy22UncheckedByteArraySinkE = external unnamed_addr constant { [8 x ptr] }, align 8
@_ZTVN6snappy4SinkE = external unnamed_addr constant { [8 x ptr] }, align 8

; Function Attrs: mustprogress nounwind uwtable
define linkonce_odr dso_local void @_ZN6snappy4SinkC2Ev(ptr noundef nonnull align 8 dereferenceable(8) %this) unnamed_addr #0 comdat align 2 {
entry:
  %this.addr = alloca ptr, align 8
  store ptr %this, ptr %this.addr, align 8
  %this1 = load ptr, ptr %this.addr, align 8
  store ptr getelementptr inbounds ({ [8 x ptr] }, ptr @_ZTVN6snappy4SinkE, i32 0, i32 0, i32 2), ptr %this1, align 8
  ret void
}

; Function Attrs: mustprogress nounwind uwtable
define linkonce_odr dso_local void @_ZN6snappy17SnappyIOVecReader7AdvanceEv(ptr noundef nonnull align 8 dereferenceable(40) %this) #0 comdat align 2 {
entry:
  %this.addr = alloca ptr, align 8
  store ptr %this, ptr %this.addr, align 8
  %this1 = load ptr, ptr %this.addr, align 8
  br label %do.body

do.body:                                          ; preds = %do.cond, %entry
  %curr_size_remaining_ = getelementptr inbounds %"class.snappy::SnappyIOVecReader", ptr %this1, i32 0, i32 3
  %0 = load i64, ptr %curr_size_remaining_, align 8
  %total_size_remaining_ = getelementptr inbounds %"class.snappy::SnappyIOVecReader", ptr %this1, i32 0, i32 4
  %1 = load i64, ptr %total_size_remaining_, align 8
  %sub = sub i64 %1, %0
  store i64 %sub, ptr %total_size_remaining_, align 8
  %total_size_remaining_2 = getelementptr inbounds %"class.snappy::SnappyIOVecReader", ptr %this1, i32 0, i32 4
  %2 = load i64, ptr %total_size_remaining_2, align 8
  %cmp = icmp eq i64 %2, 0
  br i1 %cmp, label %if.then, label %if.end

if.then:                                          ; preds = %do.body
  %curr_pos_ = getelementptr inbounds %"class.snappy::SnappyIOVecReader", ptr %this1, i32 0, i32 2
  store ptr null, ptr %curr_pos_, align 8
  %curr_size_remaining_3 = getelementptr inbounds %"class.snappy::SnappyIOVecReader", ptr %this1, i32 0, i32 3
  store i64 0, ptr %curr_size_remaining_3, align 8
  br label %do.end

if.end:                                           ; preds = %do.body
  %curr_iov_ = getelementptr inbounds %"class.snappy::SnappyIOVecReader", ptr %this1, i32 0, i32 1
  %3 = load ptr, ptr %curr_iov_, align 8
  %incdec.ptr = getelementptr inbounds %struct.iovec, ptr %3, i32 1
  store ptr %incdec.ptr, ptr %curr_iov_, align 8
  %curr_iov_4 = getelementptr inbounds %"class.snappy::SnappyIOVecReader", ptr %this1, i32 0, i32 1
  %4 = load ptr, ptr %curr_iov_4, align 8
  %iov_base = getelementptr inbounds %struct.iovec, ptr %4, i32 0, i32 0
  %5 = load ptr, ptr %iov_base, align 8
  %curr_pos_5 = getelementptr inbounds %"class.snappy::SnappyIOVecReader", ptr %this1, i32 0, i32 2
  store ptr %5, ptr %curr_pos_5, align 8
  %curr_iov_6 = getelementptr inbounds %"class.snappy::SnappyIOVecReader", ptr %this1, i32 0, i32 1
  %6 = load ptr, ptr %curr_iov_6, align 8
  %iov_len = getelementptr inbounds %struct.iovec, ptr %6, i32 0, i32 1
  %7 = load i64, ptr %iov_len, align 8
  %curr_size_remaining_7 = getelementptr inbounds %"class.snappy::SnappyIOVecReader", ptr %this1, i32 0, i32 3
  store i64 %7, ptr %curr_size_remaining_7, align 8
  br label %do.cond

do.cond:                                          ; preds = %if.end
  %curr_size_remaining_8 = getelementptr inbounds %"class.snappy::SnappyIOVecReader", ptr %this1, i32 0, i32 3
  %8 = load i64, ptr %curr_size_remaining_8, align 8
  %cmp9 = icmp eq i64 %8, 0
  br i1 %cmp9, label %do.body, label %do.end, !llvm.loop !22

do.end:                                           ; preds = %do.cond, %if.then
  ret void
}

; Function Attrs: mustprogress nounwind uwtable
define linkonce_odr dso_local void @_ZN6snappy6SourceC2Ev(ptr noundef nonnull align 8 dereferenceable(8) %this) unnamed_addr #0 comdat align 2 {
entry:
  %this.addr = alloca ptr, align 8
  store ptr %this, ptr %this.addr, align 8
  %this1 = load ptr, ptr %this.addr, align 8
  store ptr getelementptr inbounds ({ [7 x ptr] }, ptr @_ZTVN6snappy6SourceE, i32 0, i32 0, i32 2), ptr %this1, align 8
  ret void
}

; Function Attrs: mustprogress nounwind uwtable
define linkonce_odr dso_local void @_ZN6snappy17SnappyIOVecReaderD2Ev(ptr noundef nonnull align 8 dereferenceable(40) %this) unnamed_addr #0 comdat align 2 {
entry:
  %this.addr = alloca ptr, align 8
  store ptr %this, ptr %this.addr, align 8
  %this1 = load ptr, ptr %this.addr, align 8
  call void @_ZN6snappy6SourceD2Ev(ptr noundef nonnull align 8 dereferenceable(8) %this1) #11
  ret void
}

; Function Attrs: mustprogress nounwind uwtable
define linkonce_odr dso_local noundef ptr @_ZNK6snappy22UncheckedByteArraySink18CurrentDestinationEv(ptr noundef nonnull align 8 dereferenceable(16) %this) #0 comdat align 2 {
entry:
  %this.addr = alloca ptr, align 8
  store ptr %this, ptr %this.addr, align 8
  %this1 = load ptr, ptr %this.addr, align 8
  %dest_ = getelementptr inbounds %"class.snappy::UncheckedByteArraySink", ptr %this1, i32 0, i32 1
  %0 = load ptr, ptr %dest_, align 8
  ret ptr %0
}

; Function Attrs: mustprogress nounwind uwtable
define linkonce_odr dso_local void @_ZN6snappy22UncheckedByteArraySinkC2EPc(ptr noundef nonnull align 8 dereferenceable(16) %this, ptr noundef %dest) unnamed_addr #0 comdat align 2 {
entry:
  %this.addr = alloca ptr, align 8
  %dest.addr = alloca ptr, align 8
  store ptr %this, ptr %this.addr, align 8
  store ptr %dest, ptr %dest.addr, align 8
  %this1 = load ptr, ptr %this.addr, align 8
  call void @_ZN6snappy4SinkC2Ev(ptr noundef nonnull align 8 dereferenceable(8) %this1)
  store ptr getelementptr inbounds ({ [8 x ptr] }, ptr @_ZTVN6snappy22UncheckedByteArraySinkE, i32 0, i32 0, i32 2), ptr %this1, align 8
  %dest_ = getelementptr inbounds %"class.snappy::UncheckedByteArraySink", ptr %this1, i32 0, i32 1
  %0 = load ptr, ptr %dest.addr, align 8
  store ptr %0, ptr %dest_, align 8
  ret void
}

; Function Attrs: mustprogress nounwind uwtable
define linkonce_odr dso_local void @_ZN6snappy17SnappyIOVecReaderC2EPK5iovecm(ptr noundef nonnull align 8 dereferenceable(40) %this, ptr noundef %iov, i64 noundef %total_size) unnamed_addr #0 comdat align 2 {
entry:
  %this.addr = alloca ptr, align 8
  %iov.addr = alloca ptr, align 8
  %total_size.addr = alloca i64, align 8
  store ptr %this, ptr %this.addr, align 8
  store ptr %iov, ptr %iov.addr, align 8
  store i64 %total_size, ptr %total_size.addr, align 8
  %this1 = load ptr, ptr %this.addr, align 8
  call void @_ZN6snappy6SourceC2Ev(ptr noundef nonnull align 8 dereferenceable(8) %this1)
  store ptr getelementptr inbounds ({ [7 x ptr] }, ptr @_ZTVN6snappy17SnappyIOVecReaderE, i32 0, i32 0, i32 2), ptr %this1, align 8
  %curr_iov_ = getelementptr inbounds %"class.snappy::SnappyIOVecReader", ptr %this1, i32 0, i32 1
  %0 = load ptr, ptr %iov.addr, align 8
  store ptr %0, ptr %curr_iov_, align 8
  %curr_pos_ = getelementptr inbounds %"class.snappy::SnappyIOVecReader", ptr %this1, i32 0, i32 2
  %1 = load i64, ptr %total_size.addr, align 8
  %cmp = icmp ugt i64 %1, 0
  br i1 %cmp, label %cond.true, label %cond.false

cond.true:                                        ; preds = %entry
  %2 = load ptr, ptr %iov.addr, align 8
  %iov_base = getelementptr inbounds %struct.iovec, ptr %2, i32 0, i32 0
  %3 = load ptr, ptr %iov_base, align 8
  br label %cond.end

cond.false:                                       ; preds = %entry
  br label %cond.end

cond.end:                                         ; preds = %cond.false, %cond.true
  %cond = phi ptr [ %3, %cond.true ], [ null, %cond.false ]
  store ptr %cond, ptr %curr_pos_, align 8
  %curr_size_remaining_ = getelementptr inbounds %"class.snappy::SnappyIOVecReader", ptr %this1, i32 0, i32 3
  %4 = load i64, ptr %total_size.addr, align 8
  %cmp2 = icmp ugt i64 %4, 0
  br i1 %cmp2, label %cond.true3, label %cond.false4

cond.true3:                                       ; preds = %cond.end
  %5 = load ptr, ptr %iov.addr, align 8
  %iov_len = getelementptr inbounds %struct.iovec, ptr %5, i32 0, i32 1
  %6 = load i64, ptr %iov_len, align 8
  br label %cond.end5

cond.false4:                                      ; preds = %cond.end
  br label %cond.end5

cond.end5:                                        ; preds = %cond.false4, %cond.true3
  %cond6 = phi i64 [ %6, %cond.true3 ], [ 0, %cond.false4 ]
  store i64 %cond6, ptr %curr_size_remaining_, align 8
  %total_size_remaining_ = getelementptr inbounds %"class.snappy::SnappyIOVecReader", ptr %this1, i32 0, i32 4
  %7 = load i64, ptr %total_size.addr, align 8
  store i64 %7, ptr %total_size_remaining_, align 8
  %8 = load i64, ptr %total_size.addr, align 8
  %cmp7 = icmp ugt i64 %8, 0
  br i1 %cmp7, label %land.lhs.true, label %if.end

land.lhs.true:                                    ; preds = %cond.end5
  %curr_size_remaining_8 = getelementptr inbounds %"class.snappy::SnappyIOVecReader", ptr %this1, i32 0, i32 3
  %9 = load i64, ptr %curr_size_remaining_8, align 8
  %cmp9 = icmp eq i64 %9, 0
  br i1 %cmp9, label %if.then, label %if.end

if.then:                                          ; preds = %land.lhs.true
  call void @_ZN6snappy17SnappyIOVecReader7AdvanceEv(ptr noundef nonnull align 8 dereferenceable(40) %this1)
  br label %if.end

if.end:                                           ; preds = %if.then, %land.lhs.true, %cond.end5
  ret void
}

; Function Attrs: mustprogress nounwind uwtable
define dso_local void @_ZN6snappy20RawCompressFromIOVecEPK5iovecmPcPm(ptr noundef %iov, i64 noundef %uncompressed_length, ptr noundef %compressed, ptr noundef %compressed_length) #0 {
entry:
  %iov.addr = alloca ptr, align 8
  %uncompressed_length.addr = alloca i64, align 8
  %compressed.addr = alloca ptr, align 8
  %compressed_length.addr = alloca ptr, align 8
  %reader = alloca %"class.snappy::SnappyIOVecReader", align 8
  %writer = alloca %"class.snappy::UncheckedByteArraySink", align 8
  store ptr %iov, ptr %iov.addr, align 8
  store i64 %uncompressed_length, ptr %uncompressed_length.addr, align 8
  store ptr %compressed, ptr %compressed.addr, align 8
  store ptr %compressed_length, ptr %compressed_length.addr, align 8
  %0 = load ptr, ptr %iov.addr, align 8
  %1 = load i64, ptr %uncompressed_length.addr, align 8
  call void @_ZN6snappy17SnappyIOVecReaderC2EPK5iovecm(ptr noundef nonnull align 8 dereferenceable(40) %reader, ptr noundef %0, i64 noundef %1)
  %2 = load ptr, ptr %compressed.addr, align 8
  call void @_ZN6snappy22UncheckedByteArraySinkC2EPc(ptr noundef nonnull align 8 dereferenceable(16) %writer, ptr noundef %2)
  %call = call noundef i64 @_ZN6snappy8CompressEPNS_6SourceEPNS_4SinkE(ptr noundef %reader, ptr noundef %writer)
  %call1 = call noundef ptr @_ZNK6snappy22UncheckedByteArraySink18CurrentDestinationEv(ptr noundef nonnull align 8 dereferenceable(16) %writer)
  %3 = load ptr, ptr %compressed.addr, align 8
  %sub.ptr.lhs.cast = ptrtoint ptr %call1 to i64
  %sub.ptr.rhs.cast = ptrtoint ptr %3 to i64
  %sub.ptr.sub = sub i64 %sub.ptr.lhs.cast, %sub.ptr.rhs.cast
  %4 = load ptr, ptr %compressed_length.addr, align 8
  store i64 %sub.ptr.sub, ptr %4, align 8
  call void @_ZN6snappy22UncheckedByteArraySinkD1Ev(ptr noundef nonnull align 8 dereferenceable(16) %writer) #11
  call void @_ZN6snappy17SnappyIOVecReaderD2Ev(ptr noundef nonnull align 8 dereferenceable(40) %reader) #11
  ret void
}