; Function Attrs: mustprogress nounwind uwtable
define dso_local void @_ZN6snappy20RawCompressFromIOVecEPK5iovecmPcPm(ptr noundef %iov, i64 noundef %uncompressed_length, ptr noundef %compressed, ptr nocapture noundef writeonly %compressed_length) local_unnamed_addr #2 {
entry:
  %reader = alloca %"class.snappy::SnappyIOVecReader", align 8
  %writer = alloca %"class.snappy::UncheckedByteArraySink", align 8
  store ptr getelementptr inbounds ({ [7 x ptr] }, ptr @_ZTVN6snappy17SnappyIOVecReaderE, i64 0, i32 0, i64 2), ptr %reader, align 8
  %curr_iov_.i = getelementptr inbounds i8, ptr %reader, i64 8
  store ptr %iov, ptr %curr_iov_.i, align 8
  %curr_pos_.i = getelementptr inbounds i8, ptr %reader, i64 16
  %cmp.not.i = icmp eq i64 %uncompressed_length, 0
  br i1 %cmp.not.i, label %if.end.critedge.i, label %cond.true3.i

cond.true3.i:                                     ; preds = %entry
  %0 = load ptr, ptr %iov, align 8
  store ptr %0, ptr %curr_pos_.i, align 8
  %curr_size_remaining_.i = getelementptr inbounds i8, ptr %reader, i64 24
  %iov_len.i = getelementptr inbounds i8, ptr %iov, i64 8
  %1 = load i64, ptr %iov_len.i, align 8
  store i64 %1, ptr %curr_size_remaining_.i, align 8
  %total_size_remaining_.i = getelementptr inbounds i8, ptr %reader, i64 32
  store i64 %uncompressed_length, ptr %total_size_remaining_.i, align 8
  %cmp9.i = icmp eq i64 %1, 0
  br i1 %cmp9.i, label %do.body.i.i, label %_ZN6snappy17SnappyIOVecReaderC2EPK5iovecm.exit

do.body.i.i:                                      ; preds = %cond.true3.i, %do.body.i.i
  %2 = phi ptr [ %incdec.ptr.i.i, %do.body.i.i ], [ %iov, %cond.true3.i ]
  %incdec.ptr.i.i = getelementptr inbounds i8, ptr %2, i64 16
  %iov_len.i.i = getelementptr inbounds i8, ptr %2, i64 24
  %3 = load i64, ptr %iov_len.i.i, align 8
  %cmp9.i.i = icmp eq i64 %3, 0
  br i1 %cmp9.i.i, label %do.body.i.i, label %_ZN6snappy17SnappyIOVecReaderC2EPK5iovecm.exit.loopexit, !llvm.loop !23

if.end.critedge.i:                                ; preds = %entry
  call void @llvm.memset.p0.i64(ptr noundef nonnull align 8 dereferenceable(24) %curr_pos_.i, i8 0, i64 24, i1 false)
  br label %_ZN6snappy17SnappyIOVecReaderC2EPK5iovecm.exit

_ZN6snappy17SnappyIOVecReaderC2EPK5iovecm.exit.loopexit: ; preds = %do.body.i.i
  %4 = load ptr, ptr %incdec.ptr.i.i, align 8
  store ptr %incdec.ptr.i.i, ptr %curr_iov_.i, align 8
  store ptr %4, ptr %curr_pos_.i, align 8
  store i64 %3, ptr %curr_size_remaining_.i, align 8
  br label %_ZN6snappy17SnappyIOVecReaderC2EPK5iovecm.exit

_ZN6snappy17SnappyIOVecReaderC2EPK5iovecm.exit:   ; preds = %_ZN6snappy17SnappyIOVecReaderC2EPK5iovecm.exit.loopexit, %cond.true3.i, %if.end.critedge.i
  store ptr getelementptr inbounds ({ [8 x ptr] }, ptr @_ZTVN6snappy22UncheckedByteArraySinkE, i64 0, i32 0, i64 2), ptr %writer, align 8
  %dest_.i = getelementptr inbounds i8, ptr %writer, i64 8
  store ptr %compressed, ptr %dest_.i, align 8
  %call = call noundef i64 @_ZN6snappy8CompressEPNS_6SourceEPNS_4SinkE(ptr noundef nonnull %reader, ptr noundef nonnull %writer)
  %5 = load ptr, ptr %dest_.i, align 8
  %sub.ptr.lhs.cast = ptrtoint ptr %5 to i64
  %sub.ptr.rhs.cast = ptrtoint ptr %compressed to i64
  %sub.ptr.sub = sub i64 %sub.ptr.lhs.cast, %sub.ptr.rhs.cast
  store i64 %sub.ptr.sub, ptr %compressed_length, align 8
  call void @_ZN6snappy22UncheckedByteArraySinkD1Ev(ptr noundef nonnull align 8 dereferenceable(16) %writer) #19
  call void @_ZN6snappy6SourceD2Ev(ptr noundef nonnull align 8 dereferenceable(8) %reader) #19
  ret void
}